; Function Attrs: nounwind uwtable
define dso_local noundef i64 @add_size(i64 noundef %0, i64 noundef %1) local_unnamed_addr #1 {
  %3 = add i64 %1, %0
  %4 = icmp ult i64 %3, %0
  br i1 %4, label %5, label %9

5:                                                ; preds = %2
  %6 = tail call zeroext i1 @errstart_cold(i32 noundef 21, ptr noundef null) #8
  tail call void @llvm.assume(i1 %6)
  %7 = tail call i32 @errcode(i32 noundef 261) #9
  %8 = tail call i32 (ptr, ...) @errmsg(ptr noundef nonnull @.str.6) #9
  tail call void @errfinish(ptr noundef nonnull @.str.1, i32 noundef 497, ptr noundef nonnull @__func__.add_size) #9
  unreachable

9:                                                ; preds = %2
  ret i64 %3
}